target datalayout = "e-m:e-p270:32:32-p271:32:32-p272:64:64-i64:64-i128:128-f80:128-n8:16:32:64-S128"
target triple = "x86_64-pc-linux-gnu"

%struct.ossl_param_st = type { ptr, i32, ptr, i64, i64 }
%struct.dsa_gen_ctx = type { ptr, ptr, i32, i64, i64, ptr, i64, i32, i32, i32, i32, ptr, ptr, ptr, ptr }

@.str.15 = private unnamed_addr constant [10 x i8] c"potential\00", align 1
@.str.16 = private unnamed_addr constant [10 x i8] c"iteration\00", align 1

; Function Attrs: nounwind uwtable
define internal i32 @dsa_gencb(i32 noundef %0, i32 noundef %1, ptr noundef %2) #0 {
  %4 = alloca i32, align 4
  %5 = alloca i32, align 4
  %6 = alloca ptr, align 8
  %7 = alloca ptr, align 8
  %8 = alloca [3 x %struct.ossl_param_st], align 16
  %9 = alloca %struct.ossl_param_st, align 8
  %10 = alloca %struct.ossl_param_st, align 8
  store i32 %0, ptr %4, align 4, !tbaa !7
  store i32 %1, ptr %5, align 4, !tbaa !7
  store ptr %2, ptr %6, align 8, !tbaa !36
  call void @llvm.lifetime.start.p0(i64 8, ptr %7) #7
  %11 = load ptr, ptr %6, align 8, !tbaa !36
  %12 = call ptr @BN_GENCB_get_arg(ptr noundef %11)
  store ptr %12, ptr %7, align 8, !tbaa !13
  call void @llvm.lifetime.start.p0(i64 120, ptr %8) #7
  call void @llvm.memset.p0.i64(ptr align 16 %8, i8 0, i64 120, i1 false)
  %13 = getelementptr inbounds [3 x %struct.ossl_param_st], ptr %8, i64 0, i64 0
  call void @llvm.lifetime.start.p0(i64 40, ptr %9) #7
  call void @OSSL_PARAM_construct_int(ptr dead_on_unwind writable sret(%struct.ossl_param_st) align 8 %9, ptr noundef @.str.15, ptr noundef %4)
  call void @llvm.memcpy.p0.p0.i64(ptr align 16 %13, ptr align 8 %9, i64 40, i1 false), !tbaa.struct !59
  call void @llvm.lifetime.end.p0(i64 40, ptr %9) #7
  %14 = getelementptr inbounds [3 x %struct.ossl_param_st], ptr %8, i64 0, i64 1
  call void @llvm.lifetime.start.p0(i64 40, ptr %10) #7
  call void @OSSL_PARAM_construct_int(ptr dead_on_unwind writable sret(%struct.ossl_param_st) align 8 %10, ptr noundef @.str.16, ptr noundef %5)
  call void @llvm.memcpy.p0.p0.i64(ptr align 8 %14, ptr align 8 %10, i64 40, i1 false), !tbaa.struct !59
  call void @llvm.lifetime.end.p0(i64 40, ptr %10) #7
  %15 = load ptr, ptr %7, align 8, !tbaa !13
  %16 = getelementptr inbounds nuw %struct.dsa_gen_ctx, ptr %15, i32 0, i32 13
  %17 = load ptr, ptr %16, align 8, !tbaa !38
  %18 = getelementptr inbounds [3 x %struct.ossl_param_st], ptr %8, i64 0, i64 0
  %19 = load ptr, ptr %7, align 8, !tbaa !13
  %20 = getelementptr inbounds nuw %struct.dsa_gen_ctx, ptr %19, i32 0, i32 14
  %21 = load ptr, ptr %20, align 8, !tbaa !39
  %22 = call i32 %17(ptr noundef %18, ptr noundef %21)
  call void @llvm.lifetime.end.p0(i64 120, ptr %8) #7
  call void @llvm.lifetime.end.p0(i64 8, ptr %7) #7
  ret i32 %22
}